target datalayout = "e-m:e-p270:32:32-p271:32:32-p272:64:64-i64:64-i128:128-f80:128-n8:16:32:64-S128"
target triple = "x86_64-pc-linux-gnu"

%struct.RelationData = type { %struct.RelFileLocator, ptr, i32, i32, i8, i8, i8, i8, i8, i32, i32, i32, i32, ptr, ptr, i32, %struct.LockInfoData, ptr, ptr, ptr, ptr, ptr, i8, ptr, ptr, ptr, ptr, ptr, ptr, i32, ptr, i8, ptr, ptr, i32, i8, i32, ptr, i8, ptr, ptr, ptr, ptr, ptr, ptr, ptr, i32, ptr, ptr, ptr, ptr, ptr, ptr, ptr, ptr, ptr, ptr, ptr, ptr, ptr, ptr, ptr, ptr, ptr, ptr, ptr, i32, i8, ptr }
%struct.RelFileLocator = type { i32, i32, i32 }
%struct.LockInfoData = type { %struct.LockRelId }
%struct.LockRelId = type { i32, i32 }
%struct.FormData_pg_class = type { i32, %struct.nameData, i32, i32, i32, i32, i32, i32, i32, i32, float, i32, i32, i8, i8, i8, i8, i16, i16, i8, i8, i8, i8, i8, i8, i8, i8, i32, i32, i32 }
%struct.nameData = type { [64 x i8] }

@.str = private unnamed_addr constant [50 x i8] c"missing support function %d(%u,%u) for index \22%s\22\00", align 1
@.str.1 = private unnamed_addr constant [11 x i8] c"hashutil.c\00", align 1
@__func__._hash_datum2hashkey_type = private unnamed_addr constant [25 x i8] c"_hash_datum2hashkey_type\00", align 1

; Function Attrs: inlinehint nounwind uwtable
define internal i32 @DatumGetUInt32(i64 noundef %0) #3 {
  %2 = alloca i64, align 8
  store i64 %0, ptr %2, align 8
  %3 = load i64, ptr %2, align 8
  %4 = trunc i64 %3 to i32
  ret i32 %4
}

; Function Attrs: nounwind uwtable
define dso_local i32 @_hash_datum2hashkey_type(ptr noundef %0, i64 noundef %1, i32 noundef %2) #0 {
  %4 = alloca ptr, align 8
  %5 = alloca i64, align 8
  %6 = alloca i32, align 4
  %7 = alloca i32, align 4
  %8 = alloca i32, align 4
  store ptr %0, ptr %4, align 8
  store i64 %1, ptr %5, align 8
  store i32 %2, ptr %6, align 4
  call void @llvm.lifetime.start.p0(i64 4, ptr %7) #6
  call void @llvm.lifetime.start.p0(i64 4, ptr %8) #6
  %9 = load ptr, ptr %4, align 8
  %10 = getelementptr inbounds nuw %struct.RelationData, ptr %9, i32 0, i32 52
  %11 = load ptr, ptr %10, align 8
  %12 = getelementptr inbounds i32, ptr %11, i64 0
  %13 = load i32, ptr %12, align 4
  %14 = load i32, ptr %6, align 4
  %15 = load i32, ptr %6, align 4
  %16 = call i32 @get_opfamily_proc(i32 noundef %13, i32 noundef %14, i32 noundef %15, i16 noundef signext 1)
  store i32 %16, ptr %7, align 4
  %17 = load i32, ptr %7, align 4
  %18 = icmp ne i32 %17, 0
  br i1 %18, label %38, label %19

19:                                               ; preds = %3
  br label %20

20:                                               ; preds = %19
  br i1 true, label %21, label %23

21:                                               ; preds = %20
  %22 = call zeroext i1 @errstart_cold(i32 noundef 21, ptr noundef null) #7
  br i1 %22, label %25, label %35

23:                                               ; preds = %20
  %24 = call zeroext i1 @errstart(i32 noundef 21, ptr noundef null)
  br i1 %24, label %25, label %35

25:                                               ; preds = %23, %21
  %26 = load i32, ptr %6, align 4
  %27 = load i32, ptr %6, align 4
  %28 = load ptr, ptr %4, align 8
  %29 = getelementptr inbounds nuw %struct.RelationData, ptr %28, i32 0, i32 13
  %30 = load ptr, ptr %29, align 8
  %31 = getelementptr inbounds nuw %struct.FormData_pg_class, ptr %30, i32 0, i32 1
  %32 = getelementptr inbounds nuw %struct.nameData, ptr %31, i32 0, i32 0
  %33 = getelementptr inbounds [64 x i8], ptr %32, i64 0, i64 0
  %34 = call i32 (ptr, ...) @errmsg_internal(ptr noundef @.str, i32 noundef 1, i32 noundef %26, i32 noundef %27, ptr noundef %33)
  call void @errfinish(ptr noundef @.str.1, i32 noundef 115, ptr noundef @__func__._hash_datum2hashkey_type)
  br label %35

35:                                               ; preds = %25, %23, %21
  unreachable

36:                                               ; No predecessors!
  br label %37

37:                                               ; preds = %36
  br label %38

38:                                               ; preds = %37, %3
  %39 = load ptr, ptr %4, align 8
  %40 = getelementptr inbounds nuw %struct.RelationData, ptr %39, i32 0, i32 62
  %41 = load ptr, ptr %40, align 8
  %42 = getelementptr inbounds i32, ptr %41, i64 0
  %43 = load i32, ptr %42, align 4
  store i32 %43, ptr %8, align 4
  %44 = load i32, ptr %7, align 4
  %45 = load i32, ptr %8, align 4
  %46 = load i64, ptr %5, align 8
  %47 = call i64 @OidFunctionCall1Coll(i32 noundef %44, i32 noundef %45, i64 noundef %46)
  %48 = call i32 @DatumGetUInt32(i64 noundef %47)
  call void @llvm.lifetime.end.p0(i64 4, ptr %8) #6
  call void @llvm.lifetime.end.p0(i64 4, ptr %7) #6
  ret i32 %48
}