; Function Attrs: nounwind uwtable
define dso_local i32 @_hash_datum2hashkey_type(ptr noundef readonly captures(none) %0, i64 noundef %1, i32 noundef %2) local_unnamed_addr #1 {
  %4 = getelementptr inbounds nuw i8, ptr %0, i64 360
  %5 = load ptr, ptr %4, align 8
  %6 = load i32, ptr %5, align 4
  %7 = tail call i32 @get_opfamily_proc(i32 noundef %6, i32 noundef %2, i32 noundef %2, i16 noundef signext 1) #8
  %.not = icmp eq i32 %7, 0
  br i1 %.not, label %8, label %14

8:                                                ; preds = %3
  %9 = tail call zeroext i1 @errstart_cold(i32 noundef 21, ptr noundef null) #9
  tail call void @llvm.assume(i1 %9)
  %10 = getelementptr inbounds nuw i8, ptr %0, i64 56
  %11 = load ptr, ptr %10, align 8
  %12 = getelementptr inbounds nuw i8, ptr %11, i64 4
  %13 = tail call i32 (ptr, ...) @errmsg_internal(ptr noundef nonnull @.str, i32 noundef 1, i32 noundef %2, i32 noundef %2, ptr noundef nonnull %12) #8
  tail call void @errfinish(ptr noundef nonnull @.str.1, i32 noundef 115, ptr noundef nonnull @__func__._hash_datum2hashkey_type) #8
  unreachable

14:                                               ; preds = %3
  %15 = getelementptr inbounds nuw i8, ptr %0, i64 440
  %16 = load ptr, ptr %15, align 8
  %17 = load i32, ptr %16, align 4
  %18 = tail call i64 @OidFunctionCall1Coll(i32 noundef %7, i32 noundef %17, i64 noundef %1) #8
  %19 = trunc i64 %18 to i32
  ret i32 %19
}